target datalayout = "e-m:e-p270:32:32-p271:32:32-p272:64:64-i64:64-i128:128-f80:128-n8:16:32:64-S128"
target triple = "x86_64-pc-linux-gnu"

@proto_register_mrp_msrp.ett = internal global [7 x ptr] [ptr @ett_msrp, ptr @ett_msg, ptr @ett_attr_list, ptr @ett_vect_attr, ptr @ett_vector_header, ptr @ett_first_value, ptr @ett_priority_and_rank], align 16
@.str.60 = private unnamed_addr constant [37 x i8] c"Multiple Stream Reservation Protocol\00", align 1
@.str.61 = private unnamed_addr constant [9 x i8] c"MRP-MSRP\00", align 1
@.str.62 = private unnamed_addr constant [9 x i8] c"mrp-msrp\00", align 1
@proto_msrp = internal global i32 0, align 4
@msrp_handle = internal global ptr null, align 8

; Function Attrs: null_pointer_is_valid sspstrong uwtable
define hidden void @proto_register_mrp_msrp() #0 {
  %1 = alloca ptr, align 8
  call void @llvm.lifetime.start.p0(i64 8, ptr %1) #3
  %2 = call i32 @proto_register_protocol(ptr noundef @.str.60, ptr noundef @.str.61, ptr noundef @.str.62)
  store i32 %2, ptr @proto_msrp, align 4
  %3 = load i32, ptr @proto_msrp, align 4
  call void @proto_register_field_array(i32 noundef %3, ptr noundef @proto_register_mrp_msrp.hf, i32 noundef 29)
  call void @proto_register_subtree_array(ptr noundef @proto_register_mrp_msrp.ett, i32 noundef 7)
  %4 = load i32, ptr @proto_msrp, align 4
  %5 = call ptr @expert_register_protocol(i32 noundef %4)
  store ptr %5, ptr %1, align 8
  %6 = load ptr, ptr %1, align 8
  call void @expert_register_field_array(ptr noundef %6, ptr noundef @proto_register_mrp_msrp.ei, i32 noundef 1)
  %7 = load i32, ptr @proto_msrp, align 4
  %8 = call ptr @register_dissector(ptr noundef @.str.62, ptr noundef @dissect_msrp, i32 noundef %7)
  store ptr %8, ptr @msrp_handle, align 8
  call void @llvm.lifetime.end.p0(i64 8, ptr %1) #3
  ret void
}